target datalayout = "e-m:e-p270:32:32-p271:32:32-p272:64:64-i64:64-i128:128-f80:128-n8:16:32:64-S128"
target triple = "x86_64-pc-linux-gnu"

@.str = private unnamed_addr constant [105 x i8] c"%s: unable to load provider %s\0AHint: use -provider-path option or OPENSSL_MODULES environment variable.\0A\00", align 1
@bio_err = external global ptr, align 8
@app_providers = internal global ptr null, align 8

; Function Attrs: inlinehint nounwind uwtable
define internal void @sk_OSSL_PROVIDER_pop_free(ptr noundef %0, ptr noundef %1) #3 {
  %3 = alloca ptr, align 8
  %4 = alloca ptr, align 8
  store ptr %0, ptr %3, align 8, !tbaa !15
  store ptr %1, ptr %4, align 8, !tbaa !17
  %5 = load ptr, ptr %3, align 8, !tbaa !15
  %6 = load ptr, ptr %4, align 8, !tbaa !17
  call void @OPENSSL_sk_pop_free(ptr noundef %5, ptr noundef %6)
  ret void
}

; Function Attrs: nounwind uwtable
define dso_local void @app_providers_cleanup() #0 {
  %1 = load ptr, ptr @app_providers, align 8, !tbaa !15
  call void @sk_OSSL_PROVIDER_pop_free(ptr noundef %1, ptr noundef @provider_free)
  store ptr null, ptr @app_providers, align 8, !tbaa !15
  ret void
}

; Function Attrs: inlinehint nounwind uwtable
define internal i32 @sk_OSSL_PROVIDER_push(ptr noundef %0, ptr noundef %1) #3 {
  %3 = alloca ptr, align 8
  %4 = alloca ptr, align 8
  store ptr %0, ptr %3, align 8, !tbaa !15
  store ptr %1, ptr %4, align 8, !tbaa !11
  %5 = load ptr, ptr %3, align 8, !tbaa !15
  %6 = load ptr, ptr %4, align 8, !tbaa !11
  %7 = call i32 @OPENSSL_sk_push(ptr noundef %5, ptr noundef %6)
  ret i32 %7
}

; Function Attrs: inlinehint nounwind uwtable
define internal ptr @sk_OSSL_PROVIDER_new_null() #3 {
  %1 = call ptr @OPENSSL_sk_new_null()
  ret ptr %1
}

; Function Attrs: nounwind uwtable
define dso_local i32 @app_provider_load(ptr noundef %0, ptr noundef %1) #0 {
  %3 = alloca i32, align 4
  %4 = alloca ptr, align 8
  %5 = alloca ptr, align 8
  %6 = alloca ptr, align 8
  %7 = alloca i32, align 4
  store ptr %0, ptr %4, align 8, !tbaa !4
  store ptr %1, ptr %5, align 8, !tbaa !9
  call void @llvm.lifetime.start.p0(i64 8, ptr %6) #6
  %8 = load ptr, ptr %4, align 8, !tbaa !4
  %9 = load ptr, ptr %5, align 8, !tbaa !9
  %10 = call ptr @OSSL_PROVIDER_load(ptr noundef %8, ptr noundef %9)
  store ptr %10, ptr %6, align 8, !tbaa !11
  %11 = load ptr, ptr %6, align 8, !tbaa !11
  %12 = icmp eq ptr %11, null
  br i1 %12, label %13, label %18

13:                                               ; preds = %2
  %14 = call ptr @opt_getprog()
  %15 = load ptr, ptr %5, align 8, !tbaa !9
  %16 = call i32 (ptr, ...) @opt_printf_stderr(ptr noundef @.str, ptr noundef %14, ptr noundef %15)
  %17 = load ptr, ptr @bio_err, align 8, !tbaa !13
  call void @ERR_print_errors(ptr noundef %17)
  store i32 0, ptr %3, align 4
  store i32 1, ptr %7, align 4
  br label %33

18:                                               ; preds = %2
  %19 = load ptr, ptr @app_providers, align 8, !tbaa !15
  %20 = icmp eq ptr %19, null
  br i1 %20, label %21, label %23

21:                                               ; preds = %18
  %22 = call ptr @sk_OSSL_PROVIDER_new_null()
  store ptr %22, ptr @app_providers, align 8, !tbaa !15
  br label %23

23:                                               ; preds = %21, %18
  %24 = load ptr, ptr @app_providers, align 8, !tbaa !15
  %25 = icmp eq ptr %24, null
  br i1 %25, label %31, label %26

26:                                               ; preds = %23
  %27 = load ptr, ptr @app_providers, align 8, !tbaa !15
  %28 = load ptr, ptr %6, align 8, !tbaa !11
  %29 = call i32 @sk_OSSL_PROVIDER_push(ptr noundef %27, ptr noundef %28)
  %30 = icmp ne i32 %29, 0
  br i1 %30, label %32, label %31

31:                                               ; preds = %26, %23
  call void @app_providers_cleanup()
  store i32 0, ptr %3, align 4
  store i32 1, ptr %7, align 4
  br label %33

32:                                               ; preds = %26
  store i32 1, ptr %3, align 4
  store i32 1, ptr %7, align 4
  br label %33

33:                                               ; preds = %32, %31, %13
  call void @llvm.lifetime.end.p0(i64 8, ptr %6) #6
  %34 = load i32, ptr %3, align 4
  ret i32 %34
}