; Function Attrs: nounwind uwtable
define dso_local range(i32 0, 2) i32 @app_provider_load(ptr noundef %0, ptr noundef %1) local_unnamed_addr #0 {
  %3 = tail call ptr @OSSL_PROVIDER_load(ptr noundef %0, ptr noundef %1) #6
  %4 = icmp eq ptr %3, null
  br i1 %4, label %5, label %9

5:                                                ; preds = %2
  %6 = tail call ptr @opt_getprog() #6
  %7 = tail call i32 (ptr, ...) @opt_printf_stderr(ptr noundef nonnull @.str, ptr noundef %6, ptr noundef %1) #6
  %8 = load ptr, ptr @bio_err, align 8, !tbaa !4
  tail call void @ERR_print_errors(ptr noundef %8) #6
  br label %19

9:                                                ; preds = %2
  %10 = load ptr, ptr @app_providers, align 8, !tbaa !9
  %11 = icmp eq ptr %10, null
  br i1 %11, label %12, label %.thread

12:                                               ; preds = %9
  %13 = tail call ptr @OPENSSL_sk_new_null() #6
  store ptr %13, ptr @app_providers, align 8, !tbaa !9
  %14 = icmp eq ptr %13, null
  br i1 %14, label %17, label %.thread

.thread:                                          ; preds = %9, %12
  %15 = phi ptr [ %13, %12 ], [ %10, %9 ]
  %16 = tail call i32 @OPENSSL_sk_push(ptr noundef nonnull %15, ptr noundef nonnull %3) #6
  %.not = icmp eq i32 %16, 0
  br i1 %.not, label %.thread._crit_edge, label %19

.thread._crit_edge:                               ; preds = %.thread
  %.pre = load ptr, ptr @app_providers, align 8, !tbaa !9
  br label %17

17:                                               ; preds = %.thread._crit_edge, %12
  %18 = phi ptr [ %.pre, %.thread._crit_edge ], [ null, %12 ]
  tail call void @OPENSSL_sk_pop_free(ptr noundef %18, ptr noundef nonnull @provider_free) #6
  store ptr null, ptr @app_providers, align 8, !tbaa !9
  br label %19

19:                                               ; preds = %.thread, %17, %5
  %.0 = phi i32 [ 0, %5 ], [ 0, %17 ], [ 1, %.thread ]
  ret i32 %.0
}